; Function Attrs: inlinehint mustprogress nounwind uwtable
define internal void @_ZN12_GLOBAL__N_123AdaptiveManifoldFilterND2Ev(ptr noundef nonnull align 8 dereferenceable(592) initializes((0, 8)) %0) unnamed_addr #8 align 2 personality ptr @__gxx_personality_v0 {
  store ptr getelementptr inbounds nuw inrange(-16, 176) (i8, ptr @_ZTVN12_GLOBAL__N_123AdaptiveManifoldFilterNE, i64 16), ptr %0, align 8, !tbaa !3
  %2 = getelementptr inbounds nuw i8, ptr %0, i64 480
  tail call void @_ZN2cv3MatD2Ev(ptr noundef nonnull align 8 dereferenceable(96) %2) #27
  %3 = getelementptr inbounds nuw i8, ptr %0, i64 456
  %4 = load ptr, ptr %3, align 8, !tbaa !55
  %5 = getelementptr inbounds nuw i8, ptr %0, i64 464
  %6 = load ptr, ptr %5, align 8, !tbaa !56
  %.not4.i.i.i.i = icmp eq ptr %4, %6
  br i1 %.not4.i.i.i.i, label %_ZSt8_DestroyIPN2cv3MatES1_EvT_S3_RSaIT0_E.exit.i, label %.lr.ph.i.i.i.i

.lr.ph.i.i.i.i:                                   ; preds = %1, %.lr.ph.i.i.i.i
  %.05.i.i.i.i = phi ptr [ %7, %.lr.ph.i.i.i.i ], [ %4, %1 ]
  tail call void @_ZN2cv3MatD1Ev(ptr noundef nonnull align 8 dereferenceable(96) %.05.i.i.i.i) #27
  %7 = getelementptr inbounds nuw i8, ptr %.05.i.i.i.i, i64 96
  %.not.i.i.i.i = icmp eq ptr %7, %6
  br i1 %.not.i.i.i.i, label %_ZSt8_DestroyIPN2cv3MatES1_EvT_S3_RSaIT0_E.exitthread-pre-split.i, label %.lr.ph.i.i.i.i, !llvm.loop !57

_ZSt8_DestroyIPN2cv3MatES1_EvT_S3_RSaIT0_E.exitthread-pre-split.i: ; preds = %.lr.ph.i.i.i.i
  %.pr.i = load ptr, ptr %3, align 8, !tbaa !55
  br label %_ZSt8_DestroyIPN2cv3MatES1_EvT_S3_RSaIT0_E.exit.i

_ZSt8_DestroyIPN2cv3MatES1_EvT_S3_RSaIT0_E.exit.i: ; preds = %_ZSt8_DestroyIPN2cv3MatES1_EvT_S3_RSaIT0_E.exitthread-pre-split.i, %1
  %8 = phi ptr [ %.pr.i, %_ZSt8_DestroyIPN2cv3MatES1_EvT_S3_RSaIT0_E.exitthread-pre-split.i ], [ %4, %1 ]
  %.not.i.i.i = icmp eq ptr %8, null
  br i1 %.not.i.i.i, label %_ZNSt6vectorIN2cv3MatESaIS1_EED2Ev.exit, label %9

9:                                                ; preds = %_ZSt8_DestroyIPN2cv3MatES1_EvT_S3_RSaIT0_E.exit.i
  tail call void @_ZdlPv(ptr noundef nonnull %8) #30
  br label %_ZNSt6vectorIN2cv3MatESaIS1_EED2Ev.exit

_ZNSt6vectorIN2cv3MatESaIS1_EED2Ev.exit:          ; preds = %_ZSt8_DestroyIPN2cv3MatES1_EvT_S3_RSaIT0_E.exit.i, %9
  %10 = getelementptr inbounds nuw i8, ptr %0, i64 360
  tail call void @_ZN2cv3MatD1Ev(ptr noundef nonnull align 8 dereferenceable(96) %10) #27
  %11 = getelementptr inbounds nuw i8, ptr %0, i64 264
  tail call void @_ZN2cv3MatD1Ev(ptr noundef nonnull align 8 dereferenceable(96) %11) #27
  %12 = getelementptr inbounds nuw i8, ptr %0, i64 168
  tail call void @_ZN2cv3MatD1Ev(ptr noundef nonnull align 8 dereferenceable(96) %12) #27
  %13 = getelementptr inbounds nuw i8, ptr %0, i64 144
  %14 = load ptr, ptr %13, align 8, !tbaa !55
  %15 = getelementptr inbounds nuw i8, ptr %0, i64 152
  %16 = load ptr, ptr %15, align 8, !tbaa !56
  %.not4.i.i.i.i1 = icmp eq ptr %14, %16
  br i1 %.not4.i.i.i.i1, label %_ZSt8_DestroyIPN2cv3MatES1_EvT_S3_RSaIT0_E.exit.i7, label %.lr.ph.i.i.i.i2

.lr.ph.i.i.i.i2:                                  ; preds = %_ZNSt6vectorIN2cv3MatESaIS1_EED2Ev.exit, %.lr.ph.i.i.i.i2
  %.05.i.i.i.i3 = phi ptr [ %17, %.lr.ph.i.i.i.i2 ], [ %14, %_ZNSt6vectorIN2cv3MatESaIS1_EED2Ev.exit ]
  tail call void @_ZN2cv3MatD1Ev(ptr noundef nonnull align 8 dereferenceable(96) %.05.i.i.i.i3) #27
  %17 = getelementptr inbounds nuw i8, ptr %.05.i.i.i.i3, i64 96
  %.not.i.i.i.i4 = icmp eq ptr %17, %16
  br i1 %.not.i.i.i.i4, label %_ZSt8_DestroyIPN2cv3MatES1_EvT_S3_RSaIT0_E.exitthread-pre-split.i5, label %.lr.ph.i.i.i.i2, !llvm.loop !57

_ZSt8_DestroyIPN2cv3MatES1_EvT_S3_RSaIT0_E.exitthread-pre-split.i5: ; preds = %.lr.ph.i.i.i.i2
  %.pr.i6 = load ptr, ptr %13, align 8, !tbaa !55
  br label %_ZSt8_DestroyIPN2cv3MatES1_EvT_S3_RSaIT0_E.exit.i7

_ZSt8_DestroyIPN2cv3MatES1_EvT_S3_RSaIT0_E.exit.i7: ; preds = %_ZSt8_DestroyIPN2cv3MatES1_EvT_S3_RSaIT0_E.exitthread-pre-split.i5, %_ZNSt6vectorIN2cv3MatESaIS1_EED2Ev.exit
  %18 = phi ptr [ %.pr.i6, %_ZSt8_DestroyIPN2cv3MatES1_EvT_S3_RSaIT0_E.exitthread-pre-split.i5 ], [ %14, %_ZNSt6vectorIN2cv3MatESaIS1_EED2Ev.exit ]
  %.not.i.i.i8 = icmp eq ptr %18, null
  br i1 %.not.i.i.i8, label %_ZNSt6vectorIN2cv3MatESaIS1_EED2Ev.exit9, label %19

19:                                               ; preds = %_ZSt8_DestroyIPN2cv3MatES1_EvT_S3_RSaIT0_E.exit.i7
  tail call void @_ZdlPv(ptr noundef nonnull %18) #30
  br label %_ZNSt6vectorIN2cv3MatESaIS1_EED2Ev.exit9

_ZNSt6vectorIN2cv3MatESaIS1_EED2Ev.exit9:         ; preds = %_ZSt8_DestroyIPN2cv3MatES1_EvT_S3_RSaIT0_E.exit.i7, %19
  %20 = getelementptr inbounds nuw i8, ptr %0, i64 120
  %21 = load ptr, ptr %20, align 8, !tbaa !55
  %22 = getelementptr inbounds nuw i8, ptr %0, i64 128
  %23 = load ptr, ptr %22, align 8, !tbaa !56
  %.not4.i.i.i.i10 = icmp eq ptr %21, %23
  br i1 %.not4.i.i.i.i10, label %_ZSt8_DestroyIPN2cv3MatES1_EvT_S3_RSaIT0_E.exit.i16, label %.lr.ph.i.i.i.i11

.lr.ph.i.i.i.i11:                                 ; preds = %_ZNSt6vectorIN2cv3MatESaIS1_EED2Ev.exit9, %.lr.ph.i.i.i.i11
  %.05.i.i.i.i12 = phi ptr [ %24, %.lr.ph.i.i.i.i11 ], [ %21, %_ZNSt6vectorIN2cv3MatESaIS1_EED2Ev.exit9 ]
  tail call void @_ZN2cv3MatD1Ev(ptr noundef nonnull align 8 dereferenceable(96) %.05.i.i.i.i12) #27
  %24 = getelementptr inbounds nuw i8, ptr %.05.i.i.i.i12, i64 96
  %.not.i.i.i.i13 = icmp eq ptr %24, %23
  br i1 %.not.i.i.i.i13, label %_ZSt8_DestroyIPN2cv3MatES1_EvT_S3_RSaIT0_E.exitthread-pre-split.i14, label %.lr.ph.i.i.i.i11, !llvm.loop !57

_ZSt8_DestroyIPN2cv3MatES1_EvT_S3_RSaIT0_E.exitthread-pre-split.i14: ; preds = %.lr.ph.i.i.i.i11
  %.pr.i15 = load ptr, ptr %20, align 8, !tbaa !55
  br label %_ZSt8_DestroyIPN2cv3MatES1_EvT_S3_RSaIT0_E.exit.i16

_ZSt8_DestroyIPN2cv3MatES1_EvT_S3_RSaIT0_E.exit.i16: ; preds = %_ZSt8_DestroyIPN2cv3MatES1_EvT_S3_RSaIT0_E.exitthread-pre-split.i14, %_ZNSt6vectorIN2cv3MatESaIS1_EED2Ev.exit9
  %25 = phi ptr [ %.pr.i15, %_ZSt8_DestroyIPN2cv3MatES1_EvT_S3_RSaIT0_E.exitthread-pre-split.i14 ], [ %21, %_ZNSt6vectorIN2cv3MatESaIS1_EED2Ev.exit9 ]
  %.not.i.i.i17 = icmp eq ptr %25, null
  br i1 %.not.i.i.i17, label %_ZNSt6vectorIN2cv3MatESaIS1_EED2Ev.exit18, label %26

26:                                               ; preds = %_ZSt8_DestroyIPN2cv3MatES1_EvT_S3_RSaIT0_E.exit.i16
  tail call void @_ZdlPv(ptr noundef nonnull %25) #30
  br label %_ZNSt6vectorIN2cv3MatESaIS1_EED2Ev.exit18

_ZNSt6vectorIN2cv3MatESaIS1_EED2Ev.exit18:        ; preds = %_ZSt8_DestroyIPN2cv3MatES1_EvT_S3_RSaIT0_E.exit.i16, %26
  %27 = getelementptr inbounds nuw i8, ptr %0, i64 96
  %28 = load ptr, ptr %27, align 8, !tbaa !55
  %29 = getelementptr inbounds nuw i8, ptr %0, i64 104
  %30 = load ptr, ptr %29, align 8, !tbaa !56
  %.not4.i.i.i.i19 = icmp eq ptr %28, %30
  br i1 %.not4.i.i.i.i19, label %_ZSt8_DestroyIPN2cv3MatES1_EvT_S3_RSaIT0_E.exit.i25, label %.lr.ph.i.i.i.i20

.lr.ph.i.i.i.i20:                                 ; preds = %_ZNSt6vectorIN2cv3MatESaIS1_EED2Ev.exit18, %.lr.ph.i.i.i.i20
  %.05.i.i.i.i21 = phi ptr [ %31, %.lr.ph.i.i.i.i20 ], [ %28, %_ZNSt6vectorIN2cv3MatESaIS1_EED2Ev.exit18 ]
  tail call void @_ZN2cv3MatD1Ev(ptr noundef nonnull align 8 dereferenceable(96) %.05.i.i.i.i21) #27
  %31 = getelementptr inbounds nuw i8, ptr %.05.i.i.i.i21, i64 96
  %.not.i.i.i.i22 = icmp eq ptr %31, %30
  br i1 %.not.i.i.i.i22, label %_ZSt8_DestroyIPN2cv3MatES1_EvT_S3_RSaIT0_E.exitthread-pre-split.i23, label %.lr.ph.i.i.i.i20, !llvm.loop !57

_ZSt8_DestroyIPN2cv3MatES1_EvT_S3_RSaIT0_E.exitthread-pre-split.i23: ; preds = %.lr.ph.i.i.i.i20
  %.pr.i24 = load ptr, ptr %27, align 8, !tbaa !55
  br label %_ZSt8_DestroyIPN2cv3MatES1_EvT_S3_RSaIT0_E.exit.i25

_ZSt8_DestroyIPN2cv3MatES1_EvT_S3_RSaIT0_E.exit.i25: ; preds = %_ZSt8_DestroyIPN2cv3MatES1_EvT_S3_RSaIT0_E.exitthread-pre-split.i23, %_ZNSt6vectorIN2cv3MatESaIS1_EED2Ev.exit18
  %32 = phi ptr [ %.pr.i24, %_ZSt8_DestroyIPN2cv3MatES1_EvT_S3_RSaIT0_E.exitthread-pre-split.i23 ], [ %28, %_ZNSt6vectorIN2cv3MatESaIS1_EED2Ev.exit18 ]
  %.not.i.i.i26 = icmp eq ptr %32, null
  br i1 %.not.i.i.i26, label %_ZNSt6vectorIN2cv3MatESaIS1_EED2Ev.exit27, label %33

33:                                               ; preds = %_ZSt8_DestroyIPN2cv3MatES1_EvT_S3_RSaIT0_E.exit.i25
  tail call void @_ZdlPv(ptr noundef nonnull %32) #30
  br label %_ZNSt6vectorIN2cv3MatESaIS1_EED2Ev.exit27

_ZNSt6vectorIN2cv3MatESaIS1_EED2Ev.exit27:        ; preds = %_ZSt8_DestroyIPN2cv3MatES1_EvT_S3_RSaIT0_E.exit.i25, %33
  %34 = getelementptr inbounds nuw i8, ptr %0, i64 72
  %35 = load ptr, ptr %34, align 8, !tbaa !55
  %36 = getelementptr inbounds nuw i8, ptr %0, i64 80
  %37 = load ptr, ptr %36, align 8, !tbaa !56
  %.not4.i.i.i.i28 = icmp eq ptr %35, %37
  br i1 %.not4.i.i.i.i28, label %_ZSt8_DestroyIPN2cv3MatES1_EvT_S3_RSaIT0_E.exit.i34, label %.lr.ph.i.i.i.i29

.lr.ph.i.i.i.i29:                                 ; preds = %_ZNSt6vectorIN2cv3MatESaIS1_EED2Ev.exit27, %.lr.ph.i.i.i.i29
  %.05.i.i.i.i30 = phi ptr [ %38, %.lr.ph.i.i.i.i29 ], [ %35, %_ZNSt6vectorIN2cv3MatESaIS1_EED2Ev.exit27 ]
  tail call void @_ZN2cv3MatD1Ev(ptr noundef nonnull align 8 dereferenceable(96) %.05.i.i.i.i30) #27
  %38 = getelementptr inbounds nuw i8, ptr %.05.i.i.i.i30, i64 96
  %.not.i.i.i.i31 = icmp eq ptr %38, %37
  br i1 %.not.i.i.i.i31, label %_ZSt8_DestroyIPN2cv3MatES1_EvT_S3_RSaIT0_E.exitthread-pre-split.i32, label %.lr.ph.i.i.i.i29, !llvm.loop !57

_ZSt8_DestroyIPN2cv3MatES1_EvT_S3_RSaIT0_E.exitthread-pre-split.i32: ; preds = %.lr.ph.i.i.i.i29
  %.pr.i33 = load ptr, ptr %34, align 8, !tbaa !55
  br label %_ZSt8_DestroyIPN2cv3MatES1_EvT_S3_RSaIT0_E.exit.i34

_ZSt8_DestroyIPN2cv3MatES1_EvT_S3_RSaIT0_E.exit.i34: ; preds = %_ZSt8_DestroyIPN2cv3MatES1_EvT_S3_RSaIT0_E.exitthread-pre-split.i32, %_ZNSt6vectorIN2cv3MatESaIS1_EED2Ev.exit27
  %39 = phi ptr [ %.pr.i33, %_ZSt8_DestroyIPN2cv3MatES1_EvT_S3_RSaIT0_E.exitthread-pre-split.i32 ], [ %35, %_ZNSt6vectorIN2cv3MatESaIS1_EED2Ev.exit27 ]
  %.not.i.i.i35 = icmp eq ptr %39, null
  br i1 %.not.i.i.i35, label %_ZNSt6vectorIN2cv3MatESaIS1_EED2Ev.exit36, label %40

40:                                               ; preds = %_ZSt8_DestroyIPN2cv3MatES1_EvT_S3_RSaIT0_E.exit.i34
  tail call void @_ZdlPv(ptr noundef nonnull %39) #30
  br label %_ZNSt6vectorIN2cv3MatESaIS1_EED2Ev.exit36

_ZNSt6vectorIN2cv3MatESaIS1_EED2Ev.exit36:        ; preds = %_ZSt8_DestroyIPN2cv3MatES1_EvT_S3_RSaIT0_E.exit.i34, %40
  tail call void @_ZN2cv9AlgorithmD2Ev(ptr noundef nonnull align 8 dereferenceable(8) %0) #27
  ret void
}